; Function Attrs: nounwind uwtable
define noalias nonnull ptr @l_Float_ofNat___boxed(ptr noundef %0) local_unnamed_addr #0 {
  %2 = tail call double @l_Float_ofScientific(ptr noundef %0, i8 noundef zeroext 0, ptr noundef nonnull inttoptr (i64 1 to ptr))
  %3 = ptrtoint ptr %0 to i64
  %4 = and i64 %3, 1
  %.not.i = icmp eq i64 %4, 0
  br i1 %.not.i, label %5, label %lean_float_of_nat.exit

5:                                                ; preds = %1
  %6 = load i32, ptr %0, align 4, !tbaa !5
  %7 = icmp sgt i32 %6, 1
  br i1 %7, label %8, label %10, !prof !10

8:                                                ; preds = %5
  %9 = add nsw i32 %6, -1
  store i32 %9, ptr %0, align 4, !tbaa !5
  br label %lean_float_of_nat.exit

10:                                               ; preds = %5
  %.not.i.i = icmp eq i32 %6, 0
  br i1 %.not.i.i, label %lean_float_of_nat.exit, label %11

11:                                               ; preds = %10
  tail call void @lean_dec_ref_cold(ptr noundef nonnull %0) #4
  br label %lean_float_of_nat.exit

lean_float_of_nat.exit:                           ; preds = %1, %8, %10, %11
  tail call void @lean_inc_heartbeat() #4
  %12 = tail call noalias ptr @mi_malloc_small(i64 noundef 16) #4
  %13 = icmp eq ptr %12, null
  br i1 %13, label %14, label %lean_box_float.exit

14:                                               ; preds = %lean_float_of_nat.exit
  tail call void @lean_internal_panic_out_of_memory() #5
  unreachable

lean_box_float.exit:                              ; preds = %lean_float_of_nat.exit
  %15 = getelementptr inbounds nuw i8, ptr %12, i64 4
  store i32 1, ptr %12, align 4, !tbaa !5
  store i32 16, ptr %15, align 4
  %16 = getelementptr inbounds nuw i8, ptr %12, i64 8
  store double %2, ptr %16, align 8, !tbaa !11
  ret ptr %12
}